target datalayout = "e-m:e-p270:32:32-p271:32:32-p272:64:64-i64:64-f80:128-n8:16:32:64-S128"
target triple = "x86_64-pc-linux-gnu"

@.str = private unnamed_addr constant [4 x i8] c"%d \00", align 1
@.str.1 = private unnamed_addr constant [3 x i8] c"%c\00", align 1
@.str.2 = private unnamed_addr constant [3 x i8] c"%d\00", align 1

; Function Attrs: noinline nounwind uwtable
define dso_local signext i8 @ch(i8 signext %0) #0 {
  %2 = alloca i8, align 1
  %3 = alloca i8, align 1
  store i8 %0, i8* %2, align 1
  %4 = load i8, i8* %2, align 1
  %5 = sext i8 %4 to i32
  %6 = icmp sge i32 %5, 65
  br i1 %6, label %7, label %12

7:                                                ; preds = %1
  %8 = load i8, i8* %2, align 1
  %9 = sext i8 %8 to i32
  %10 = icmp sle i32 %9, 90
  br i1 %10, label %11, label %12

11:                                               ; preds = %7
  store i8 55, i8* %3, align 1
  br label %23

12:                                               ; preds = %7, %1
  %13 = load i8, i8* %2, align 1
  %14 = sext i8 %13 to i32
  %15 = icmp sge i32 %14, 97
  br i1 %15, label %16, label %21

16:                                               ; preds = %12
  %17 = load i8, i8* %2, align 1
  %18 = sext i8 %17 to i32
  %19 = icmp sle i32 %18, 122
  br i1 %19, label %20, label %21

20:                                               ; preds = %16
  store i8 87, i8* %3, align 1
  br label %22

21:                                               ; preds = %16, %12
  store i8 48, i8* %3, align 1
  br label %22

22:                                               ; preds = %21, %20
  br label %23

23:                                               ; preds = %22, %11
  %24 = load i8, i8* %3, align 1
  ret i8 %24
}

; Function Attrs: noinline nounwind uwtable
define dso_local void @main() #0 {
  %1 = alloca i32, align 4
  %2 = alloca i32, align 4
  %3 = alloca i32, align 4
  %4 = alloca i32, align 4
  %5 = alloca i64, align 8
  %6 = alloca [32 x i8], align 16
  %7 = alloca [32 x i8], align 16
  %8 = alloca i8, align 1
  store i64 0, i64* %5, align 8
  %9 = bitcast [32 x i8]* %6 to i8*
  call void @llvm.memset.p0i8.i64(i8* align 16 %9, i8 0, i64 32, i1 false)
  %10 = bitcast [32 x i8]* %7 to i8*
  call void @llvm.memset.p0i8.i64(i8* align 16 %10, i8 0, i64 32, i1 false)
  %11 = call i32 (i8*, ...) @__isoc99_scanf(i8* getelementptr inbounds ([4 x i8], [4 x i8]* @.str, i64 0, i64 0), i32* %1)
  store i32 0, i32* %3, align 4
  br label %12

12:                                               ; preds = %28, %0
  %13 = load i32, i32* %3, align 4
  %14 = icmp slt i32 %13, 32
  br i1 %14, label %15, label %31

15:                                               ; preds = %12
  %16 = load i32, i32* %3, align 4
  %17 = sext i32 %16 to i64
  %18 = getelementptr inbounds [32 x i8], [32 x i8]* %6, i64 0, i64 %17
  %19 = call i32 (i8*, ...) @__isoc99_scanf(i8* getelementptr inbounds ([3 x i8], [3 x i8]* @.str.1, i64 0, i64 0), i8* %18)
  %20 = load i32, i32* %3, align 4
  %21 = sext i32 %20 to i64
  %22 = getelementptr inbounds [32 x i8], [32 x i8]* %6, i64 0, i64 %21
  %23 = load i8, i8* %22, align 1
  %24 = sext i8 %23 to i32
  %25 = icmp eq i32 %24, 32
  br i1 %25, label %26, label %27

26:                                               ; preds = %15
  br label %31

27:                                               ; preds = %15
  br label %28

28:                                               ; preds = %27
  %29 = load i32, i32* %3, align 4
  %30 = add nsw i32 %29, 1
  store i32 %30, i32* %3, align 4
  br label %12

31:                                               ; preds = %26, %12
  %32 = call i32 (i8*, ...) @__isoc99_scanf(i8* getelementptr inbounds ([3 x i8], [3 x i8]* @.str.2, i64 0, i64 0), i32* %2)
  store i32 0, i32* %4, align 4
  br label %33

33:                                               ; preds = %55, %31
  %34 = load i32, i32* %4, align 4
  %35 = load i32, i32* %3, align 4
  %36 = icmp slt i32 %34, %35
  br i1 %36, label %37, label %58

37:                                               ; preds = %33
  %38 = load i64, i64* %5, align 8
  %39 = load i32, i32* %1, align 4
  %40 = sext i32 %39 to i64
  %41 = mul nsw i64 %38, %40
  %42 = load i32, i32* %4, align 4
  %43 = sext i32 %42 to i64
  %44 = getelementptr inbounds [32 x i8], [32 x i8]* %6, i64 0, i64 %43
  %45 = load i8, i8* %44, align 1
  %46 = sext i8 %45 to i64
  %47 = add nsw i64 %41, %46
  %48 = load i32, i32* %4, align 4
  %49 = sext i32 %48 to i64
  %50 = getelementptr inbounds [32 x i8], [32 x i8]* %6, i64 0, i64 %49
  %51 = load i8, i8* %50, align 1
  %52 = call signext i8 @ch(i8 signext %51)
  %53 = sext i8 %52 to i64
  %54 = sub nsw i64 %47, %53
  store i64 %54, i64* %5, align 8
  br label %55

55:                                               ; preds = %37
  %56 = load i32, i32* %4, align 4
  %57 = add nsw i32 %56, 1
  store i32 %57, i32* %4, align 4
  br label %33

58:                                               ; preds = %33
  store i32 0, i32* %4, align 4
  br label %59

59:                                               ; preds = %89, %58
  %60 = load i32, i32* %4, align 4
  %61 = icmp slt i32 %60, 32
  br i1 %61, label %62, label %92

62:                                               ; preds = %59
  store i8 48, i8* %8, align 1
  %63 = load i64, i64* %5, align 8
  %64 = load i32, i32* %2, align 4
  %65 = sext i32 %64 to i64
  %66 = srem i64 %63, %65
  %67 = icmp sgt i64 %66, 9
  br i1 %67, label %68, label %69

68:                                               ; preds = %62
  store i8 55, i8* %8, align 1
  br label %69

69:                                               ; preds = %68, %62
  %70 = load i64, i64* %5, align 8
  %71 = load i32, i32* %2, align 4
  %72 = sext i32 %71 to i64
  %73 = srem i64 %70, %72
  %74 = load i8, i8* %8, align 1
  %75 = sext i8 %74 to i64
  %76 = add nsw i64 %73, %75
  %77 = trunc i64 %76 to i8
  %78 = load i32, i32* %4, align 4
  %79 = sext i32 %78 to i64
  %80 = getelementptr inbounds [32 x i8], [32 x i8]* %7, i64 0, i64 %79
  store i8 %77, i8* %80, align 1
  %81 = load i64, i64* %5, align 8
  %82 = load i32, i32* %2, align 4
  %83 = sext i32 %82 to i64
  %84 = sdiv i64 %81, %83
  store i64 %84, i64* %5, align 8
  %85 = load i64, i64* %5, align 8
  %86 = icmp eq i64 %85, 0
  br i1 %86, label %87, label %88

87:                                               ; preds = %69
  br label %92

88:                                               ; preds = %69
  br label %89

89:                                               ; preds = %88
  %90 = load i32, i32* %4, align 4
  %91 = add nsw i32 %90, 1
  store i32 %91, i32* %4, align 4
  br label %59

92:                                               ; preds = %87, %59
  store i32 0, i32* %3, align 4
  br label %93

93:                                               ; preds = %106, %92
  %94 = load i32, i32* %3, align 4
  %95 = load i32, i32* %4, align 4
  %96 = icmp sle i32 %94, %95
  br i1 %96, label %97, label %109

97:                                               ; preds = %93
  %98 = load i32, i32* %4, align 4
  %99 = load i32, i32* %3, align 4
  %100 = sub nsw i32 %98, %99
  %101 = sext i32 %100 to i64
  %102 = getelementptr inbounds [32 x i8], [32 x i8]* %7, i64 0, i64 %101
  %103 = load i8, i8* %102, align 1
  %104 = sext i8 %103 to i32
  %105 = call i32 (i8*, ...) @printf(i8* getelementptr inbounds ([3 x i8], [3 x i8]* @.str.1, i64 0, i64 0), i32 %104)
  br label %106

106:                                              ; preds = %97
  %107 = load i32, i32* %3, align 4
  %108 = add nsw i32 %107, 1
  store i32 %108, i32* %3, align 4
  br label %93

109:                                              ; preds = %93
  ret void
}